# SymbolsHelper-Confirmed: 6.6.1 amd64
libQt6HttpServer.so.6 libqt6httpserver6 #MINVER#
* Build-Depends-Package: qt6-httpserver-dev
 Qt_6@Qt_6 6.6.1
 Qt_6_PRIVATE_API@Qt_6_PRIVATE_API 6.6.1
 _Z60qRegisterNormalizedMetaType_QHttpServerResponder__StatusCodeRK10QByteArray@Qt_6 6.6.1
 _ZN11QHttpServer11qt_metacallEN11QMetaObject4CallEiPPv@Qt_6 6.6.1
 _ZN11QHttpServer11qt_metacastEPKc@Qt_6 6.6.1
 _ZN11QHttpServer12sendResponseEO19QHttpServerResponseRK18QHttpServerRequestO20QHttpServerResponder@Qt_6 6.6.1
 _ZN11QHttpServer12sendResponseEO7QFutureI19QHttpServerResponseERK18QHttpServerRequestO20QHttpServerResponder@Qt_6 6.6.1
 _ZN11QHttpServer13handleRequestERK18QHttpServerRequestR20QHttpServerResponder@Qt_6 6.6.1
 _ZN11QHttpServer14missingHandlerERK18QHttpServerRequestO20QHttpServerResponder@Qt_6 6.6.1
 _ZN11QHttpServer16afterRequestImplESt8functionIF19QHttpServerResponseOS1_RK18QHttpServerRequestEE@Qt_6 6.6.1
 _ZN11QHttpServer16staticMetaObjectE@Qt_6 6.6.1
 _ZN11QHttpServer17setMissingHandlerESt8functionIFvRK18QHttpServerRequestO20QHttpServerResponderEE@Qt_6 6.6.1
 _ZN11QHttpServer6routerEv@Qt_6 6.6.1
 _ZN11QHttpServerC1EP7QObject@Qt_6 6.6.1
 _ZN11QHttpServerC2EP7QObject@Qt_6 6.6.1
 _ZN11QHttpServerD0Ev@Qt_6 6.6.1
 _ZN11QHttpServerD1Ev@Qt_6 6.6.1
 _ZN11QHttpServerD2Ev@Qt_6 6.6.1
 _ZN17QHttpServerRouter11addRuleImplESt10unique_ptrI21QHttpServerRouterRuleSt14default_deleteIS1_EESt16initializer_listI9QMetaTypeE@Qt_6 6.6.1
 _ZN17QHttpServerRouter12addConverterE9QMetaType14QAnyStringView@Qt_6 6.6.1
 _ZN17QHttpServerRouter15clearConvertersEv@Qt_6 6.6.1
 _ZN17QHttpServerRouter15removeConverterE9QMetaType@Qt_6 6.6.1
 _ZN17QHttpServerRouterC1Ev@Qt_6 6.6.1
 _ZN17QHttpServerRouterC2Ev@Qt_6 6.6.1
 _ZN17QHttpServerRouterD1Ev@Qt_6 6.6.1
 _ZN17QHttpServerRouterD2Ev@Qt_6 6.6.1
 _ZN18QHttpServerRequest16staticMetaObjectE@Qt_6 6.6.1
 _ZN18QHttpServerRequestC1ERK12QHostAddresstS2_t@Qt_6 6.6.1
 _ZN18QHttpServerRequestC2ERK12QHostAddresstS2_t@Qt_6 6.6.1
 _ZN18QHttpServerRequestD1Ev@Qt_6 6.6.1
 _ZN18QHttpServerRequestD2Ev@Qt_6 6.6.1
 _ZN19QAbstractHttpServer11qt_metacallEN11QMetaObject4CallEiPPv@Qt_6 6.6.1
 _ZN19QAbstractHttpServer11qt_metacastEPKc@Qt_6 6.6.1
 _ZN19QAbstractHttpServer11serverPortsEv@Qt_6 6.6.1
 _ZN19QAbstractHttpServer16staticMetaObjectE@Qt_6 6.6.1
 _ZN19QAbstractHttpServer22newWebSocketConnectionEv@Qt_6 6.6.1
 _ZN19QAbstractHttpServer30nextPendingWebSocketConnectionEv@Qt_6 6.6.1
 _ZN19QAbstractHttpServer4bindEP10QTcpServer@Qt_6 6.6.1
 _ZN19QAbstractHttpServer6listenERK12QHostAddresst@Qt_6 6.6.1
 _ZN19QAbstractHttpServer8sslSetupERK15QSslCertificateRK7QSslKeyN4QSsl11SslProtocolE@Qt_6 6.6.1
 _ZN19QAbstractHttpServer8sslSetupERK17QSslConfiguration@Qt_6 6.6.1
 _ZN19QAbstractHttpServerC1EP7QObject@Qt_6 6.6.1
 _ZN19QAbstractHttpServerC1ER26QAbstractHttpServerPrivateP7QObject@Qt_6_PRIVATE_API 6.6.1
 _ZN19QAbstractHttpServerC2EP7QObject@Qt_6 6.6.1
 _ZN19QAbstractHttpServerC2ER26QAbstractHttpServerPrivateP7QObject@Qt_6_PRIVATE_API 6.6.1
 _ZN19QAbstractHttpServerD0Ev@Qt_6 6.6.1
 _ZN19QAbstractHttpServerD1Ev@Qt_6 6.6.1
 _ZN19QAbstractHttpServerD2Ev@Qt_6 6.6.1
 _ZN19QHttpServerResponse10addHeadersESt16initializer_listISt4pairI10QByteArrayS2_EE@Qt_6 6.6.1
 _ZN19QHttpServerResponse10setHeadersESt16initializer_listISt4pairI10QByteArrayS2_EE@Qt_6 6.6.1
 _ZN19QHttpServerResponse11clearHeaderERK10QByteArray@Qt_6 6.6.1
 _ZN19QHttpServerResponse12clearHeadersEv@Qt_6 6.6.1
 _ZN19QHttpServerResponse8fromFileERK7QString@Qt_6 6.6.1
 _ZN19QHttpServerResponse9addHeaderEO10QByteArrayRKS0_@Qt_6 6.6.1
 _ZN19QHttpServerResponse9addHeaderEO10QByteArrayS1_@Qt_6 6.6.1
 _ZN19QHttpServerResponse9addHeaderERK10QByteArrayOS0_@Qt_6 6.6.1
 _ZN19QHttpServerResponse9addHeaderERK10QByteArrayS2_@Qt_6 6.6.1
 _ZN19QHttpServerResponse9setHeaderEO10QByteArrayRKS0_@Qt_6 6.6.1
 _ZN19QHttpServerResponse9setHeaderEO10QByteArrayS1_@Qt_6 6.6.1
 _ZN19QHttpServerResponse9setHeaderERK10QByteArrayOS0_@Qt_6 6.6.1
 _ZN19QHttpServerResponse9setHeaderERK10QByteArrayS2_@Qt_6 6.6.1
 _ZN19QHttpServerResponseC1EN20QHttpServerResponder10StatusCodeE@Qt_6 6.6.1
 _ZN19QHttpServerResponseC1EO10QByteArrayN20QHttpServerResponder10StatusCodeE@Qt_6 6.6.1
 _ZN19QHttpServerResponseC1EO10QByteArrayRKS0_N20QHttpServerResponder10StatusCodeE@Qt_6 6.6.1
 _ZN19QHttpServerResponseC1EO10QByteArrayS1_N20QHttpServerResponder10StatusCodeE@Qt_6 6.6.1
 _ZN19QHttpServerResponseC1EOS_@Qt_6 6.6.1
 _ZN19QHttpServerResponseC1EPKcN20QHttpServerResponder10StatusCodeE@Qt_6 6.6.1
 _ZN19QHttpServerResponseC1ERK10QByteArrayN20QHttpServerResponder10StatusCodeE@Qt_6 6.6.1
 _ZN19QHttpServerResponseC1ERK10QByteArrayOS0_N20QHttpServerResponder10StatusCodeE@Qt_6 6.6.1
 _ZN19QHttpServerResponseC1ERK10QByteArrayS2_N20QHttpServerResponder10StatusCodeE@Qt_6 6.6.1
 _ZN19QHttpServerResponseC1ERK10QJsonArrayN20QHttpServerResponder10StatusCodeE@Qt_6 6.6.1
 _ZN19QHttpServerResponseC1ERK11QJsonObjectN20QHttpServerResponder10StatusCodeE@Qt_6 6.6.1
 _ZN19QHttpServerResponseC1ERK7QStringN20QHttpServerResponder10StatusCodeE@Qt_6 6.6.1
 _ZN19QHttpServerResponseC2EN20QHttpServerResponder10StatusCodeE@Qt_6 6.6.1
 _ZN19QHttpServerResponseC2EO10QByteArrayN20QHttpServerResponder10StatusCodeE@Qt_6 6.6.1
 _ZN19QHttpServerResponseC2EO10QByteArrayRKS0_N20QHttpServerResponder10StatusCodeE@Qt_6 6.6.1
 _ZN19QHttpServerResponseC2EO10QByteArrayS1_N20QHttpServerResponder10StatusCodeE@Qt_6 6.6.1
 _ZN19QHttpServerResponseC2EOS_@Qt_6 6.6.1
 _ZN19QHttpServerResponseC2EPKcN20QHttpServerResponder10StatusCodeE@Qt_6 6.6.1
 _ZN19QHttpServerResponseC2ERK10QByteArrayN20QHttpServerResponder10StatusCodeE@Qt_6 6.6.1
 _ZN19QHttpServerResponseC2ERK10QByteArrayOS0_N20QHttpServerResponder10StatusCodeE@Qt_6 6.6.1
 _ZN19QHttpServerResponseC2ERK10QByteArrayS2_N20QHttpServerResponder10StatusCodeE@Qt_6 6.6.1
 _ZN19QHttpServerResponseC2ERK10QJsonArrayN20QHttpServerResponder10StatusCodeE@Qt_6 6.6.1
 _ZN19QHttpServerResponseC2ERK11QJsonObjectN20QHttpServerResponder10StatusCodeE@Qt_6 6.6.1
 _ZN19QHttpServerResponseC2ERK7QStringN20QHttpServerResponder10StatusCodeE@Qt_6 6.6.1
 _ZN19QHttpServerResponseD1Ev@Qt_6 6.6.1
 _ZN19QHttpServerResponseD2Ev@Qt_6 6.6.1
 _ZN19QHttpServerResponseaSEOS_@Qt_6 6.6.1
 _ZN20QHttpServerResponder11writeHeaderERK10QByteArrayS2_@Qt_6 6.6.1
 _ZN20QHttpServerResponder12sendResponseERK19QHttpServerResponse@Qt_6 6.6.1
 _ZN20QHttpServerResponder12writeHeadersESt16initializer_listISt4pairI10QByteArrayS2_EE@Qt_6 6.6.1
 _ZN20QHttpServerResponder15writeStatusLineENS_10StatusCodeE@Qt_6 6.6.1
 _ZN20QHttpServerResponder16staticMetaObjectE@Qt_6 6.6.1
 _ZN20QHttpServerResponder5writeENS_10StatusCodeE@Qt_6 6.6.1
 _ZN20QHttpServerResponder5writeEP9QIODeviceRK10QByteArrayNS_10StatusCodeE@Qt_6 6.6.1
 _ZN20QHttpServerResponder5writeEP9QIODeviceSt16initializer_listISt4pairI10QByteArrayS4_EENS_10StatusCodeE@Qt_6 6.6.1
 _ZN20QHttpServerResponder5writeERK10QByteArrayS2_NS_10StatusCodeE@Qt_6 6.6.1
 _ZN20QHttpServerResponder5writeERK10QByteArraySt16initializer_listISt4pairIS0_S0_EENS_10StatusCodeE@Qt_6 6.6.1
 _ZN20QHttpServerResponder5writeERK13QJsonDocumentNS_10StatusCodeE@Qt_6 6.6.1
 _ZN20QHttpServerResponder5writeERK13QJsonDocumentSt16initializer_listISt4pairI10QByteArrayS5_EENS_10StatusCodeE@Qt_6 6.6.1
 _ZN20QHttpServerResponder5writeESt16initializer_listISt4pairI10QByteArrayS2_EENS_10StatusCodeE@Qt_6 6.6.1
 _ZN20QHttpServerResponder9writeBodyEPKc@Qt_6 6.6.1
 _ZN20QHttpServerResponder9writeBodyEPKcx@Qt_6 6.6.1
 _ZN20QHttpServerResponder9writeBodyERK10QByteArray@Qt_6 6.6.1
 _ZN20QHttpServerResponderC1EOS_@Qt_6 6.6.1
 _ZN20QHttpServerResponderC1EP17QHttpServerStream@Qt_6_PRIVATE_API 6.6.1
 _ZN20QHttpServerResponderC2EOS_@Qt_6 6.6.1
 _ZN20QHttpServerResponderC2EP17QHttpServerStream@Qt_6_PRIVATE_API 6.6.1
 _ZN20QHttpServerResponderD1Ev@Qt_6 6.6.1
 _ZN20QHttpServerResponderD2Ev@Qt_6 6.6.1
 _ZN21QHttpServerRouterRule16createPathRegexpESt16initializer_listI9QMetaTypeERK5QHashIS1_7QStringE@Qt_6 6.6.1
 _ZN21QHttpServerRouterRuleC1EP28QHttpServerRouterRulePrivate@Qt_6_PRIVATE_API 6.6.1
 (optional=templinst)_ZN21QHttpServerRouterRuleC1ERK7QString6QFlagsIN18QHttpServerRequest6MethodEESt8functionIFvRK23QRegularExpressionMatchRKS4_O20QHttpServerResponderEE@Qt_6 6.6.1
 _ZN21QHttpServerRouterRuleC1ERK7QStringSt8functionIFvRK23QRegularExpressionMatchRK18QHttpServerRequestO20QHttpServerResponderEE@Qt_6 6.6.1
 _ZN21QHttpServerRouterRuleC2EP28QHttpServerRouterRulePrivate@Qt_6_PRIVATE_API 6.6.1
 (optional=templinst)_ZN21QHttpServerRouterRuleC2ERK7QString6QFlagsIN18QHttpServerRequest6MethodEESt8functionIFvRK23QRegularExpressionMatchRKS4_O20QHttpServerResponderEE@Qt_6 6.6.1
 _ZN21QHttpServerRouterRuleC2ERK7QStringSt8functionIFvRK23QRegularExpressionMatchRK18QHttpServerRequestO20QHttpServerResponderEE@Qt_6 6.6.1
 _ZN21QHttpServerRouterRuleD0Ev@Qt_6 6.6.1
 _ZN21QHttpServerRouterRuleD1Ev@Qt_6 6.6.1
 _ZN21QHttpServerRouterRuleD2Ev@Qt_6 6.6.1
 _ZNK11QHttpServer10metaObjectEv@Qt_6 6.6.1
 _ZNK17QHttpServerRouter10convertersEv@Qt_6 6.6.1
 _ZNK17QHttpServerRouter13handleRequestERK18QHttpServerRequestR20QHttpServerResponder@Qt_6 6.6.1
 _ZNK18QHttpServerRequest10remotePortEv@Qt_6 6.6.1
 _ZNK18QHttpServerRequest12localAddressEv@Qt_6 6.6.1
 _ZNK18QHttpServerRequest13remoteAddressEv@Qt_6 6.6.1
 _ZNK18QHttpServerRequest3urlEv@Qt_6 6.6.1
 _ZNK18QHttpServerRequest4bodyEv@Qt_6 6.6.1
 _ZNK18QHttpServerRequest5queryEv@Qt_6 6.6.1
 _ZNK18QHttpServerRequest5valueERK10QByteArray@Qt_6 6.6.1
 _ZNK18QHttpServerRequest6methodEv@Qt_6 6.6.1
 _ZNK18QHttpServerRequest7headersEv@Qt_6 6.6.1
 _ZNK18QHttpServerRequest9localPortEv@Qt_6 6.6.1
 _ZNK19QAbstractHttpServer10metaObjectEv@Qt_6 6.6.1
 _ZNK19QAbstractHttpServer30hasPendingWebSocketConnectionsEv@Qt_6 6.6.1
 _ZNK19QAbstractHttpServer7serversEv@Qt_6 6.6.1
 _ZNK19QHttpServerResponse10statusCodeEv@Qt_6 6.6.1
 _ZNK19QHttpServerResponse4dataEv@Qt_6 6.6.1
 _ZNK19QHttpServerResponse7headersERK10QByteArray@Qt_6 6.6.1
 _ZNK19QHttpServerResponse8mimeTypeEv@Qt_6 6.6.1
 _ZNK19QHttpServerResponse9hasHeaderERK10QByteArray@Qt_6 6.6.1
 _ZNK19QHttpServerResponse9hasHeaderERK10QByteArrayS2_@Qt_6 6.6.1
 _ZNK21QHttpServerRouterRule15hasValidMethodsEv@Qt_6 6.6.1
 _ZNK21QHttpServerRouterRule4execERK18QHttpServerRequestR20QHttpServerResponder@Qt_6 6.6.1
 _ZNK21QHttpServerRouterRule7matchesERK18QHttpServerRequestP23QRegularExpressionMatch@Qt_6 6.6.1
 _ZTI11QHttpServer@Qt_6 6.6.1
 _ZTI19QAbstractHttpServer@Qt_6 6.6.1
 _ZTI21QHttpServerRouterRule@Qt_6 6.6.1
 _ZTS11QHttpServer@Qt_6 6.6.1
 _ZTS19QAbstractHttpServer@Qt_6 6.6.1
 _ZTS21QHttpServerRouterRule@Qt_6 6.6.1
 _ZTV11QHttpServer@Qt_6 6.6.1
 _ZTV19QAbstractHttpServer@Qt_6 6.6.1
 _ZTV21QHttpServerRouterRule@Qt_6 6.6.1
 _Zls6QDebugRK18QHttpServerRequest@Qt_6 6.6.1
